
06-file-read:	file format mach-o arm64

Disassembly of section __TEXT,__text:

0000000100000460 <_main>:
100000460: d10283ff    	sub	sp, sp, #0xa0
100000464: a9097bfd    	stp	x29, x30, [sp, #0x90]
100000468: 910243fd    	add	x29, sp, #0x90
10000046c: 90000028    	adrp	x8, 0x100004000 <_printf+0x100004000>
100000470: f9400508    	ldr	x8, [x8, #0x8]
100000474: f9400108    	ldr	x8, [x8]
100000478: f81f83a8    	stur	x8, [x29, #-0x8]
10000047c: b90023ff    	str	wzr, [sp, #0x20]
100000480: 90000000    	adrp	x0, 0x100000000 <_printf+0x100000000>
100000484: 9115b000    	add	x0, x0, #0x56c
100000488: 90000001    	adrp	x1, 0x100000000 <_printf+0x100000000>
10000048c: 9115d421    	add	x1, x1, #0x575
100000490: 94000031    	bl	0x100000554 <_printf+0x100000554>
100000494: f9000fe0    	str	x0, [sp, #0x18]
100000498: f9400fe8    	ldr	x8, [sp, #0x18]
10000049c: b5000108    	cbnz	x8, 0x1000004bc <_main+0x5c>
1000004a0: 14000001    	b	0x1000004a4 <_main+0x44>
1000004a4: 90000000    	adrp	x0, 0x100000000 <_printf+0x100000000>
1000004a8: 9115dc00    	add	x0, x0, #0x577
1000004ac: 9400002d    	bl	0x100000560 <_printf+0x100000560>
1000004b0: 52800028    	mov	w8, #0x1                ; =1
1000004b4: b90023e8    	str	w8, [sp, #0x20]
1000004b8: 14000010    	b	0x1000004f8 <_main+0x98>
1000004bc: f9400fe2    	ldr	x2, [sp, #0x18]
1000004c0: 910093e0    	add	x0, sp, #0x24
1000004c4: f9000be0    	str	x0, [sp, #0x10]
1000004c8: 52800c81    	mov	w1, #0x64               ; =100
1000004cc: 9400001f    	bl	0x100000548 <_printf+0x100000548>
1000004d0: f9400be8    	ldr	x8, [sp, #0x10]
1000004d4: 910003e9    	mov	x9, sp
1000004d8: f9000128    	str	x8, [x9]
1000004dc: 90000000    	adrp	x0, 0x100000000 <_printf+0x100000000>
1000004e0: 91163000    	add	x0, x0, #0x58c
1000004e4: 9400001f    	bl	0x100000560 <_printf+0x100000560>
1000004e8: f9400fe0    	ldr	x0, [sp, #0x18]
1000004ec: 94000014    	bl	0x10000053c <_printf+0x10000053c>
1000004f0: b90023ff    	str	wzr, [sp, #0x20]
1000004f4: 14000001    	b	0x1000004f8 <_main+0x98>
1000004f8: b94023e8    	ldr	w8, [sp, #0x20]
1000004fc: b9000fe8    	str	w8, [sp, #0xc]
100000500: f85f83a9    	ldur	x9, [x29, #-0x8]
100000504: 90000028    	adrp	x8, 0x100004000 <_printf+0x100004000>
100000508: f9400508    	ldr	x8, [x8, #0x8]
10000050c: f9400108    	ldr	x8, [x8]
100000510: eb090108    	subs	x8, x8, x9
100000514: 54000060    	b.eq	0x100000520 <_main+0xc0>
100000518: 14000001    	b	0x10000051c <_main+0xbc>
10000051c: 94000005    	bl	0x100000530 <_printf+0x100000530>
100000520: b9400fe0    	ldr	w0, [sp, #0xc]
100000524: a9497bfd    	ldp	x29, x30, [sp, #0x90]
100000528: 910283ff    	add	sp, sp, #0xa0
10000052c: d65f03c0    	ret

Disassembly of section __TEXT,__stubs:

0000000100000530 <__stubs>:
100000530: 90000030    	adrp	x16, 0x100004000 <_printf+0x100004000>
100000534: f9400210    	ldr	x16, [x16]
100000538: d61f0200    	br	x16
10000053c: 90000030    	adrp	x16, 0x100004000 <_printf+0x100004000>
100000540: f9400a10    	ldr	x16, [x16, #0x10]
100000544: d61f0200    	br	x16
100000548: 90000030    	adrp	x16, 0x100004000 <_printf+0x100004000>
10000054c: f9400e10    	ldr	x16, [x16, #0x18]
100000550: d61f0200    	br	x16
100000554: 90000030    	adrp	x16, 0x100004000 <_printf+0x100004000>
100000558: f9401210    	ldr	x16, [x16, #0x20]
10000055c: d61f0200    	br	x16
100000560: 90000030    	adrp	x16, 0x100004000 <_printf+0x100004000>
100000564: f9401610    	ldr	x16, [x16, #0x28]
100000568: d61f0200    	br	x16
